target datalayout = "e-m:e-p270:32:32-p271:32:32-p272:64:64-i64:64-i128:128-f80:128-n8:16:32:64-S128"
target triple = "x86_64-pc-linux-gnu"

%struct.FT_Matrix_ = type { i64, i64, i64, i64 }

; Function Attrs: nounwind uwtable
define void @lv_freetype_italic_transform(ptr noundef %0) #0 {
  %2 = alloca ptr, align 8
  %3 = alloca %struct.FT_Matrix_, align 8
  store ptr %0, ptr %2, align 8, !tbaa !20
  br label %4

4:                                                ; preds = %1
  %5 = load ptr, ptr %2, align 8, !tbaa !20
  %6 = icmp ne ptr %5, null
  br i1 %6, label %11, label %7

7:                                                ; preds = %4
  br label %8

8:                                                ; preds = %7
  br label %9

9:                                                ; preds = %8
  br label %10

10:                                               ; preds = %9, %10
  br label %10

11:                                               ; preds = %4
  br label %12

12:                                               ; preds = %11
  call void @llvm.lifetime.start.p0(i64 32, ptr %3) #7
  %13 = getelementptr inbounds nuw %struct.FT_Matrix_, ptr %3, i32 0, i32 0
  store i64 65536, ptr %13, align 8, !tbaa !74
  %14 = getelementptr inbounds nuw %struct.FT_Matrix_, ptr %3, i32 0, i32 1
  store i64 13930, ptr %14, align 8, !tbaa !76
  %15 = getelementptr inbounds nuw %struct.FT_Matrix_, ptr %3, i32 0, i32 2
  store i64 0, ptr %15, align 8, !tbaa !77
  %16 = getelementptr inbounds nuw %struct.FT_Matrix_, ptr %3, i32 0, i32 3
  store i64 65536, ptr %16, align 8, !tbaa !78
  %17 = load ptr, ptr %2, align 8, !tbaa !20
  call void @FT_Set_Transform(ptr noundef %17, ptr noundef %3, ptr noundef null)
  call void @llvm.lifetime.end.p0(i64 32, ptr %3) #7
  ret void
}