; Function Attrs: nounwind uwtable
define void @lv_freetype_italic_transform(ptr noundef %0) local_unnamed_addr #0 {
  %2 = alloca %struct.FT_Matrix_, align 8
  %.not = icmp eq ptr %0, null
  br i1 %.not, label %.preheader, label %3

.preheader:                                       ; preds = %1, %.preheader
  br label %.preheader

3:                                                ; preds = %1
  call void @llvm.lifetime.start.p0(i64 32, ptr nonnull %2) #8
  store i64 65536, ptr %2, align 8, !tbaa !29
  %4 = getelementptr inbounds nuw i8, ptr %2, i64 8
  store i64 13930, ptr %4, align 8, !tbaa !31
  %5 = getelementptr inbounds nuw i8, ptr %2, i64 16
  store i64 0, ptr %5, align 8, !tbaa !32
  %6 = getelementptr inbounds nuw i8, ptr %2, i64 24
  store i64 65536, ptr %6, align 8, !tbaa !33
  call void @FT_Set_Transform(ptr noundef nonnull %0, ptr noundef nonnull %2, ptr noundef null) #8
  call void @llvm.lifetime.end.p0(i64 32, ptr nonnull %2) #8
  ret void
}